target datalayout = "e-m:e-p270:32:32-p271:32:32-p272:64:64-i64:64-i128:128-f80:128-n8:16:32:64-S128"
target triple = "x86_64-pc-linux-gnu"

%"class.arrow::util::Float16" = type { i16 }

; Function Attrs: inlinehint mustprogress nounwind uwtable
define linkonce_odr noundef float @_ZN5arrow4util8SafeCopyIfjEENSt9enable_ifIXaaaasr3stdE23is_trivially_copyable_vIT0_Esr3stdE23is_trivially_copyable_vIT_EeqstS3_stS4_ES4_E4typeES3_(i32 noundef %0) #3 comdat {
  %2 = alloca i32, align 4
  %3 = alloca float, align 4
  store i32 %0, ptr %2, align 4, !tbaa !11
  call void @llvm.lifetime.start.p0(i64 4, ptr %3) #6
  call void @llvm.memcpy.p0.p0.i64(ptr align 4 %3, ptr align 1 %2, i64 4, i1 false)
  %4 = load float, ptr %3, align 4, !tbaa !16
  call void @llvm.lifetime.end.p0(i64 4, ptr %3) #6
  ret float %4
}

; Function Attrs: mustprogress nounwind uwtable
define internal noundef i32 @_ZN5arrow4util12_GLOBAL__N_115BinaryConverterIjE12FromBinary16Et(i16 noundef zeroext %0) #2 align 2 {
  %2 = alloca i32, align 4
  %3 = alloca i16, align 2
  %4 = alloca i32, align 4
  %5 = alloca i16, align 2
  %6 = alloca i16, align 2
  %7 = alloca i32, align 4
  %8 = alloca i32, align 4
  %9 = alloca i32, align 4
  store i16 %0, ptr %3, align 2, !tbaa !13
  call void @llvm.lifetime.start.p0(i64 4, ptr %4) #6
  %10 = load i16, ptr %3, align 2, !tbaa !13
  %11 = zext i16 %10 to i32
  %12 = and i32 %11, 32768
  %13 = shl i32 %12, 16
  store i32 %13, ptr %4, align 4, !tbaa !11
  call void @llvm.lifetime.start.p0(i64 2, ptr %5) #6
  %14 = load i16, ptr %3, align 2, !tbaa !13
  %15 = zext i16 %14 to i32
  %16 = and i32 %15, 31744
  %17 = trunc i32 %16 to i16
  store i16 %17, ptr %5, align 2, !tbaa !13
  call void @llvm.lifetime.start.p0(i64 2, ptr %6) #6
  %18 = load i16, ptr %3, align 2, !tbaa !13
  %19 = zext i16 %18 to i32
  %20 = and i32 %19, 1023
  %21 = trunc i32 %20 to i16
  store i16 %21, ptr %6, align 2, !tbaa !13
  %22 = load i16, ptr %5, align 2, !tbaa !13
  %23 = zext i16 %22 to i32
  switch i32 %23, label %61 [
    i32 31744, label %24
    i32 0, label %31
  ]

24:                                               ; preds = %1
  %25 = load i32, ptr %4, align 4, !tbaa !11
  %26 = or i32 %25, 2139095040
  %27 = load i16, ptr %6, align 2, !tbaa !13
  %28 = zext i16 %27 to i32
  %29 = shl i32 %28, 13
  %30 = or i32 %26, %29
  store i32 %30, ptr %2, align 4
  store i32 1, ptr %7, align 4
  br label %69

31:                                               ; preds = %1
  %32 = load i16, ptr %6, align 2, !tbaa !13
  %33 = zext i16 %32 to i32
  %34 = icmp eq i32 %33, 0
  br i1 %34, label %35, label %37

35:                                               ; preds = %31
  %36 = load i32, ptr %4, align 4, !tbaa !11
  store i32 %36, ptr %2, align 4
  store i32 1, ptr %7, align 4
  br label %69

37:                                               ; preds = %31
  call void @llvm.lifetime.start.p0(i64 4, ptr %8) #6
  store i32 112, ptr %8, align 4, !tbaa !11
  call void @llvm.lifetime.start.p0(i64 4, ptr %9) #6
  %38 = load i16, ptr %6, align 2, !tbaa !13
  %39 = zext i16 %38 to i32
  %40 = shl i32 %39, 1
  store i32 %40, ptr %9, align 4, !tbaa !11
  br label %41

41:                                               ; preds = %45, %37
  %42 = load i32, ptr %9, align 4, !tbaa !11
  %43 = and i32 %42, 1024
  %44 = icmp eq i32 %43, 0
  br i1 %44, label %45, label %50

45:                                               ; preds = %41
  %46 = load i32, ptr %8, align 4, !tbaa !11
  %47 = add i32 %46, -1
  store i32 %47, ptr %8, align 4, !tbaa !11
  %48 = load i32, ptr %9, align 4, !tbaa !11
  %49 = shl i32 %48, 1
  store i32 %49, ptr %9, align 4, !tbaa !11
  br label %41, !llvm.loop !14

50:                                               ; preds = %41
  %51 = load i32, ptr %8, align 4, !tbaa !11
  %52 = shl i32 %51, 23
  store i32 %52, ptr %8, align 4, !tbaa !11
  %53 = load i32, ptr %9, align 4, !tbaa !11
  %54 = and i32 %53, 1023
  %55 = shl i32 %54, 13
  store i32 %55, ptr %9, align 4, !tbaa !11
  %56 = load i32, ptr %4, align 4, !tbaa !11
  %57 = load i32, ptr %8, align 4, !tbaa !11
  %58 = or i32 %56, %57
  %59 = load i32, ptr %9, align 4, !tbaa !11
  %60 = or i32 %58, %59
  store i32 %60, ptr %2, align 4
  store i32 1, ptr %7, align 4
  call void @llvm.lifetime.end.p0(i64 4, ptr %9) #6
  call void @llvm.lifetime.end.p0(i64 4, ptr %8) #6
  br label %69

61:                                               ; preds = %1
  %62 = load i32, ptr %4, align 4, !tbaa !11
  %63 = load i16, ptr %3, align 2, !tbaa !13
  %64 = zext i16 %63 to i32
  %65 = and i32 %64, 32767
  %66 = add i32 %65, 114688
  %67 = shl i32 %66, 13
  %68 = or i32 %62, %67
  store i32 %68, ptr %2, align 4
  store i32 1, ptr %7, align 4
  br label %69

69:                                               ; preds = %61, %50, %35, %24
  call void @llvm.lifetime.end.p0(i64 2, ptr %6) #6
  call void @llvm.lifetime.end.p0(i64 2, ptr %5) #6
  call void @llvm.lifetime.end.p0(i64 4, ptr %4) #6
  %70 = load i32, ptr %2, align 4
  ret i32 %70
}

; Function Attrs: mustprogress uwtable
define noundef float @_ZNK5arrow4util7Float167ToFloatEv(ptr noundef nonnull align 2 dereferenceable(2) %0) #0 align 2 {
  %2 = alloca ptr, align 8
  %3 = alloca i32, align 4
  store ptr %0, ptr %2, align 8, !tbaa !3
  %4 = load ptr, ptr %2, align 8
  call void @llvm.lifetime.start.p0(i64 4, ptr %3) #6
  %5 = getelementptr inbounds nuw %"class.arrow::util::Float16", ptr %4, i32 0, i32 0
  %6 = load i16, ptr %5, align 2, !tbaa !8
  %7 = call noundef i32 @_ZN5arrow4util12_GLOBAL__N_115BinaryConverterIjE12FromBinary16Et(i16 noundef zeroext %6)
  store i32 %7, ptr %3, align 4, !tbaa !11
  %8 = load i32, ptr %3, align 4, !tbaa !11
  %9 = call noundef float @_ZN5arrow4util8SafeCopyIfjEENSt9enable_ifIXaaaasr3stdE23is_trivially_copyable_vIT0_Esr3stdE23is_trivially_copyable_vIT_EeqstS3_stS4_ES4_E4typeES3_(i32 noundef %8)
  call void @llvm.lifetime.end.p0(i64 4, ptr %3) #6
  ret float %9
}