; Function Attrs: mustprogress nofree norecurse nosync nounwind willreturn memory(argmem: read) uwtable
define noundef float @_ZNK5arrow4util7Float167ToFloatEv(ptr noundef nonnull readonly align 2 captures(none) dereferenceable(2) %0) local_unnamed_addr #0 align 2 {
  %2 = load i16, ptr %0, align 2, !tbaa !3
  %.signext.i = sext i16 %2 to i32
  %3 = and i32 %.signext.i, -2147483648
  %4 = and i16 %2, 31744
  %5 = and i16 %2, 1023
  switch i16 %4, label %26 [
    i16 31744, label %6
    i16 0, label %11
  ]

6:                                                ; preds = %1
  %7 = zext i16 %2 to i32
  %8 = shl nuw nsw i32 %7, 13
  %9 = or disjoint i32 %3, %8
  %10 = or i32 %9, 2139095040
  br label %_ZN5arrow4util12_GLOBAL__N_115BinaryConverterIjE12FromBinary16Et.exit

11:                                               ; preds = %1
  %12 = icmp eq i16 %5, 0
  br i1 %12, label %_ZN5arrow4util12_GLOBAL__N_115BinaryConverterIjE12FromBinary16Et.exit, label %13

13:                                               ; preds = %11
  %14 = shl nuw nsw i16 %5, 1
  %15 = zext nneg i16 %14 to i32
  %16 = icmp samesign ult i16 %5, 512
  br i1 %16, label %.lr.ph.i, label %._crit_edge.i

.lr.ph.i:                                         ; preds = %13, %.lr.ph.i
  %.024.i = phi i32 [ %18, %.lr.ph.i ], [ %15, %13 ]
  %.02023.i = phi i32 [ %17, %.lr.ph.i ], [ 112, %13 ]
  %17 = add i32 %.02023.i, -1
  %18 = shl i32 %.024.i, 1
  %19 = and i32 %.024.i, 512
  %20 = icmp eq i32 %19, 0
  br i1 %20, label %.lr.ph.i, label %._crit_edge.loopexit.i, !llvm.loop !8

._crit_edge.loopexit.i:                           ; preds = %.lr.ph.i
  %21 = shl i32 %17, 23
  br label %._crit_edge.i

._crit_edge.i:                                    ; preds = %._crit_edge.loopexit.i, %13
  %.020.lcssa.i = phi i32 [ 939524096, %13 ], [ %21, %._crit_edge.loopexit.i ]
  %.0.lcssa.i = phi i32 [ %15, %13 ], [ %18, %._crit_edge.loopexit.i ]
  %22 = shl i32 %.0.lcssa.i, 13
  %23 = and i32 %22, 8372224
  %24 = or disjoint i32 %.020.lcssa.i, %23
  %25 = or i32 %24, %3
  br label %_ZN5arrow4util12_GLOBAL__N_115BinaryConverterIjE12FromBinary16Et.exit

26:                                               ; preds = %1
  %27 = and i16 %2, 32767
  %28 = zext nneg i16 %27 to i32
  %29 = shl nuw nsw i32 %28, 13
  %30 = add nuw nsw i32 %29, 939524096
  %31 = or disjoint i32 %30, %3
  br label %_ZN5arrow4util12_GLOBAL__N_115BinaryConverterIjE12FromBinary16Et.exit

_ZN5arrow4util12_GLOBAL__N_115BinaryConverterIjE12FromBinary16Et.exit: ; preds = %6, %11, %._crit_edge.i, %26
  %.021.i = phi i32 [ %31, %26 ], [ %25, %._crit_edge.i ], [ %10, %6 ], [ %3, %11 ]
  %32 = bitcast i32 %.021.i to float
  ret float %32
}